target datalayout = "e-m:e-p270:32:32-p271:32:32-p272:64:64-i64:64-i128:128-f80:128-n8:16:32:64-S128"
target triple = "x86_64-pc-linux-gnu"

%struct._header_field_info = type { ptr, ptr, i32, i32, ptr, i64, ptr, i32, i32, i32, i32, ptr }
%struct._asn1_ctx_t = type { i32, i32, i8, ptr, ptr, ptr, ptr, ptr, %struct.anon, %struct.anon.2, %struct.anon.3, ptr }
%struct.anon = type { i32, i8, i8, i8, ptr, ptr, i32, i32, ptr, ptr, ptr, %union.anon }
%union.anon = type { %struct.anon.0 }
%struct.anon.0 = type { ptr }
%struct.anon.2 = type { ptr, ptr, ptr }
%struct.anon.3 = type { i32, i8, ptr, i32, i32, ptr, ptr, ptr, %union.anon.4 }
%union.anon.4 = type { %struct.anon.5 }
%struct.anon.5 = type { ptr }
%struct._packet_info = type { ptr, ptr, i32, i32, %struct.nstime_t, %struct.nstime_t, %struct.nstime_t, i32, ptr, ptr, ptr, ptr, %struct._address, %struct._address, %struct._address, %struct._address, %struct._address, %struct._address, i32, ptr, i32, %struct.anon.7, i32, i32, i32, i32, ptr, i32, ptr, ptr, i16, i16, i32, i32, i16, i32, i32, ptr, ptr, ptr, i8, i8, i16, i16, i16, i32, i16, i16, ptr, ptr, ptr, ptr, ptr, i32 }
%struct.nstime_t = type { i64, i32 }
%struct._address = type { i32, i32, ptr, ptr }
%struct.anon.7 = type { i8, [3 x i8] }

@hf_oer_length_determinant = internal global i32 0, align 4
@.str.5 = private unnamed_addr constant [55 x i8] c"%s:%u: failed assertion \22DISSECTOR_ASSERT_NOT_REACHED\22\00", align 1
@.str.6 = private unnamed_addr constant [29 x i8] c"epan/dissectors/packet-oer.c\00", align 1
@.str.49 = private unnamed_addr constant [6 x i8] c" (%s)\00", align 1

; Function Attrs: nounwind uwtable
define internal i32 @dissect_oer_any_oid(ptr noundef %0, i32 noundef %1, ptr noundef %2, ptr noundef %3, i32 noundef %4, ptr noundef %5, i32 noundef %6) #0 {
  %8 = alloca ptr, align 8
  %9 = alloca i32, align 4
  %10 = alloca ptr, align 8
  %11 = alloca ptr, align 8
  %12 = alloca i32, align 4
  %13 = alloca ptr, align 8
  %14 = alloca i32, align 4
  %15 = alloca i32, align 4
  %16 = alloca ptr, align 8
  %17 = alloca ptr, align 8
  store ptr %0, ptr %8, align 8
  store i32 %1, ptr %9, align 4
  store ptr %2, ptr %10, align 8
  store ptr %3, ptr %11, align 8
  store i32 %4, ptr %12, align 4
  store ptr %5, ptr %13, align 8
  store i32 %6, ptr %14, align 4
  %18 = load ptr, ptr %8, align 8
  %19 = load i32, ptr %9, align 4
  %20 = load ptr, ptr %10, align 8
  %21 = load ptr, ptr %11, align 8
  %22 = load i32, ptr @hf_oer_length_determinant, align 4
  %23 = call i32 @dissect_oer_length_determinant(ptr noundef %18, i32 noundef %19, ptr noundef %20, ptr noundef %21, i32 noundef %22, ptr noundef %15)
  store i32 %23, ptr %9, align 4
  %24 = load ptr, ptr %10, align 8
  %25 = getelementptr inbounds %struct._asn1_ctx_t, ptr %24, i32 0, i32 4
  store ptr null, ptr %25, align 8
  %26 = load i32, ptr %12, align 4
  %27 = call ptr @proto_registrar_get_nth(i32 noundef %26)
  store ptr %27, ptr %17, align 8
  %28 = load i32, ptr %14, align 4
  %29 = icmp ne i32 %28, 0
  br i1 %29, label %30, label %35

30:                                               ; preds = %7
  %31 = load ptr, ptr %17, align 8
  %32 = getelementptr inbounds %struct._header_field_info, ptr %31, i32 0, i32 2
  %33 = load i32, ptr %32, align 8
  %34 = icmp eq i32 %33, 37
  br i1 %34, label %43, label %35

35:                                               ; preds = %30, %7
  %36 = load i32, ptr %14, align 4
  %37 = icmp ne i32 %36, 0
  br i1 %37, label %52, label %38

38:                                               ; preds = %35
  %39 = load ptr, ptr %17, align 8
  %40 = getelementptr inbounds %struct._header_field_info, ptr %39, i32 0, i32 2
  %41 = load i32, ptr %40, align 8
  %42 = icmp eq i32 %41, 41
  br i1 %42, label %43, label %52

43:                                               ; preds = %38, %30
  %44 = load ptr, ptr %11, align 8
  %45 = load i32, ptr %12, align 4
  %46 = load ptr, ptr %8, align 8
  %47 = load i32, ptr %9, align 4
  %48 = load i32, ptr %15, align 4
  %49 = call ptr @proto_tree_add_item(ptr noundef %44, i32 noundef %45, ptr noundef %46, i32 noundef %47, i32 noundef %48, i32 noundef 0)
  %50 = load ptr, ptr %10, align 8
  %51 = getelementptr inbounds %struct._asn1_ctx_t, ptr %50, i32 0, i32 4
  store ptr %49, ptr %51, align 8
  br label %125

52:                                               ; preds = %38, %35
  %53 = load ptr, ptr %17, align 8
  %54 = getelementptr inbounds %struct._header_field_info, ptr %53, i32 0, i32 2
  %55 = load i32, ptr %54, align 8
  %56 = icmp eq i32 %55, 26
  br i1 %56, label %77, label %57

57:                                               ; preds = %52
  %58 = load ptr, ptr %17, align 8
  %59 = getelementptr inbounds %struct._header_field_info, ptr %58, i32 0, i32 2
  %60 = load i32, ptr %59, align 8
  %61 = icmp eq i32 %60, 27
  br i1 %61, label %77, label %62

62:                                               ; preds = %57
  %63 = load ptr, ptr %17, align 8
  %64 = getelementptr inbounds %struct._header_field_info, ptr %63, i32 0, i32 2
  %65 = load i32, ptr %64, align 8
  %66 = icmp eq i32 %65, 43
  br i1 %66, label %77, label %67

67:                                               ; preds = %62
  %68 = load ptr, ptr %17, align 8
  %69 = getelementptr inbounds %struct._header_field_info, ptr %68, i32 0, i32 2
  %70 = load i32, ptr %69, align 8
  %71 = icmp eq i32 %70, 45
  br i1 %71, label %77, label %72

72:                                               ; preds = %67
  %73 = load ptr, ptr %17, align 8
  %74 = getelementptr inbounds %struct._header_field_info, ptr %73, i32 0, i32 2
  %75 = load i32, ptr %74, align 8
  %76 = icmp eq i32 %75, 28
  br i1 %76, label %77, label %123

77:                                               ; preds = %72, %67, %62, %57, %52
  %78 = load ptr, ptr %10, align 8
  %79 = getelementptr inbounds %struct._asn1_ctx_t, ptr %78, i32 0, i32 3
  %80 = load ptr, ptr %79, align 8
  %81 = getelementptr inbounds %struct._packet_info, ptr %80, i32 0, i32 50
  %82 = load ptr, ptr %81, align 8
  %83 = load ptr, ptr %8, align 8
  %84 = load i32, ptr %9, align 4
  %85 = load i32, ptr %15, align 4
  %86 = call ptr @tvb_get_ptr(ptr noundef %83, i32 noundef %84, i32 noundef %85)
  %87 = load i32, ptr %15, align 4
  %88 = call ptr @oid_encoded2string(ptr noundef %82, ptr noundef %86, i32 noundef %87)
  store ptr %88, ptr %16, align 8
  %89 = load ptr, ptr %11, align 8
  %90 = load i32, ptr %12, align 4
  %91 = load ptr, ptr %8, align 8
  %92 = load i32, ptr %9, align 4
  %93 = load i32, ptr %15, align 4
  %94 = load ptr, ptr %16, align 8
  %95 = call ptr @proto_tree_add_string(ptr noundef %89, i32 noundef %90, ptr noundef %91, i32 noundef %92, i32 noundef %93, ptr noundef %94)
  %96 = load ptr, ptr %10, align 8
  %97 = getelementptr inbounds %struct._asn1_ctx_t, ptr %96, i32 0, i32 4
  store ptr %95, ptr %97, align 8
  %98 = load ptr, ptr %10, align 8
  %99 = getelementptr inbounds %struct._asn1_ctx_t, ptr %98, i32 0, i32 4
  %100 = load ptr, ptr %99, align 8
  %101 = icmp ne ptr %100, null
  br i1 %101, label %102, label %122

102:                                              ; preds = %77
  %103 = load ptr, ptr %10, align 8
  %104 = getelementptr inbounds %struct._asn1_ctx_t, ptr %103, i32 0, i32 3
  %105 = load ptr, ptr %104, align 8
  %106 = getelementptr inbounds %struct._packet_info, ptr %105, i32 0, i32 50
  %107 = load ptr, ptr %106, align 8
  %108 = load ptr, ptr %8, align 8
  %109 = load i32, ptr %9, align 4
  %110 = load i32, ptr %15, align 4
  %111 = call ptr @tvb_get_ptr(ptr noundef %108, i32 noundef %109, i32 noundef %110)
  %112 = load i32, ptr %15, align 4
  %113 = call ptr @oid_resolved_from_encoded(ptr noundef %107, ptr noundef %111, i32 noundef %112)
  store ptr %113, ptr %16, align 8
  %114 = load ptr, ptr %16, align 8
  %115 = icmp ne ptr %114, null
  br i1 %115, label %116, label %121

116:                                              ; preds = %102
  %117 = load ptr, ptr %10, align 8
  %118 = getelementptr inbounds %struct._asn1_ctx_t, ptr %117, i32 0, i32 4
  %119 = load ptr, ptr %118, align 8
  %120 = load ptr, ptr %16, align 8
  call void (ptr, ptr, ...) @proto_item_append_text(ptr noundef %119, ptr noundef @.str.49, ptr noundef %120)
  br label %121

121:                                              ; preds = %116, %102
  br label %122

122:                                              ; preds = %121, %77
  br label %124

123:                                              ; preds = %72
  call void (ptr, ...) @proto_report_dissector_bug(ptr noundef @.str.5, ptr noundef @.str.6, i32 noundef 860) #4
  unreachable

124:                                              ; preds = %122
  br label %125

125:                                              ; preds = %124, %43
  %126 = load ptr, ptr %13, align 8
  %127 = icmp ne ptr %126, null
  br i1 %127, label %128, label %134

128:                                              ; preds = %125
  %129 = load ptr, ptr %8, align 8
  %130 = load i32, ptr %9, align 4
  %131 = load i32, ptr %15, align 4
  %132 = call ptr @tvb_new_subset_length(ptr noundef %129, i32 noundef %130, i32 noundef %131)
  %133 = load ptr, ptr %13, align 8
  store ptr %132, ptr %133, align 8
  br label %134

134:                                              ; preds = %128, %125
  %135 = load i32, ptr %9, align 4
  ret i32 %135
}

; Function Attrs: nounwind uwtable
define i32 @dissect_oer_object_identifier(ptr noundef %0, i32 noundef %1, ptr noundef %2, ptr noundef %3, i32 noundef %4, ptr noundef %5) #0 {
  %7 = alloca ptr, align 8
  %8 = alloca i32, align 4
  %9 = alloca ptr, align 8
  %10 = alloca ptr, align 8
  %11 = alloca i32, align 4
  %12 = alloca ptr, align 8
  store ptr %0, ptr %7, align 8
  store i32 %1, ptr %8, align 4
  store ptr %2, ptr %9, align 8
  store ptr %3, ptr %10, align 8
  store i32 %4, ptr %11, align 4
  store ptr %5, ptr %12, align 8
  %13 = load ptr, ptr %7, align 8
  %14 = load i32, ptr %8, align 4
  %15 = load ptr, ptr %9, align 8
  %16 = load ptr, ptr %10, align 8
  %17 = load i32, ptr %11, align 4
  %18 = load ptr, ptr %12, align 8
  %19 = call i32 @dissect_oer_any_oid(ptr noundef %13, i32 noundef %14, ptr noundef %15, ptr noundef %16, i32 noundef %17, ptr noundef %18, i32 noundef 1)
  ret i32 %19
}