; Function Attrs: nounwind uwtable
define i32 @dissect_oer_object_identifier(ptr noundef %0, i32 noundef %1, ptr noundef captures(none) %2, ptr noundef %3, i32 noundef %4, ptr noundef writeonly %5) local_unnamed_addr #0 {
  %7 = alloca i32, align 4
  call void @llvm.lifetime.start.p0(i64 4, ptr nonnull %7)
  %8 = load i32, ptr @hf_oer_length_determinant, align 4
  %9 = call fastcc i32 @dissect_oer_length_determinant(ptr noundef %0, i32 noundef %1, ptr noundef %2, ptr noundef %3, i32 noundef %8, ptr noundef %7)
  %10 = getelementptr inbounds nuw i8, ptr %2, i64 24
  store ptr null, ptr %10, align 8
  %11 = tail call ptr @proto_registrar_get_nth(i32 noundef %4) #8
  %12 = getelementptr inbounds nuw i8, ptr %11, i64 16
  %13 = load i32, ptr %12, align 8
  switch i32 %13, label %34 [
    i32 37, label %14
    i32 26, label %17
    i32 27, label %17
    i32 43, label %17
    i32 45, label %17
    i32 28, label %17
  ]

14:                                               ; preds = %6
  %15 = load i32, ptr %7, align 4
  %16 = tail call ptr @proto_tree_add_item(ptr noundef %3, i32 noundef %4, ptr noundef %0, i32 noundef %9, i32 noundef %15, i32 noundef 0) #8
  store ptr %16, ptr %10, align 8
  br label %35

17:                                               ; preds = %6, %6, %6, %6, %6
  %18 = getelementptr inbounds nuw i8, ptr %2, i64 16
  %19 = load ptr, ptr %18, align 8
  %20 = getelementptr inbounds nuw i8, ptr %19, i64 408
  %21 = load ptr, ptr %20, align 8
  %22 = load i32, ptr %7, align 4
  %23 = tail call ptr @tvb_get_ptr(ptr noundef %0, i32 noundef %9, i32 noundef %22) #8
  %24 = tail call ptr @oid_encoded2string(ptr noundef %21, ptr noundef %23, i32 noundef %22) #8
  %25 = tail call ptr @proto_tree_add_string(ptr noundef %3, i32 noundef %4, ptr noundef %0, i32 noundef %9, i32 noundef %22, ptr noundef %24) #8
  store ptr %25, ptr %10, align 8
  %.not.i = icmp eq ptr %25, null
  br i1 %.not.i, label %35, label %26

26:                                               ; preds = %17
  %27 = load ptr, ptr %18, align 8
  %28 = getelementptr inbounds nuw i8, ptr %27, i64 408
  %29 = load ptr, ptr %28, align 8
  %30 = tail call ptr @tvb_get_ptr(ptr noundef %0, i32 noundef %9, i32 noundef %22) #8
  %31 = tail call ptr @oid_resolved_from_encoded(ptr noundef %29, ptr noundef %30, i32 noundef %22) #8
  %.not42.i = icmp eq ptr %31, null
  br i1 %.not42.i, label %35, label %32

32:                                               ; preds = %26
  %33 = load ptr, ptr %10, align 8
  tail call void (ptr, ptr, ...) @proto_item_append_text(ptr noundef %33, ptr noundef nonnull @.str.49, ptr noundef nonnull %31) #8
  br label %35

34:                                               ; preds = %6
  tail call void (ptr, ...) @proto_report_dissector_bug(ptr noundef nonnull @.str.5, ptr noundef nonnull @.str.6, i32 noundef 860) #9
  unreachable

35:                                               ; preds = %32, %26, %17, %14
  %36 = phi i32 [ %22, %26 ], [ %22, %32 ], [ %22, %17 ], [ %15, %14 ]
  %.not43.i = icmp eq ptr %5, null
  br i1 %.not43.i, label %dissect_oer_any_oid.exit, label %37

37:                                               ; preds = %35
  %38 = tail call ptr @tvb_new_subset_length(ptr noundef %0, i32 noundef %9, i32 noundef %36) #8
  store ptr %38, ptr %5, align 8
  br label %dissect_oer_any_oid.exit

dissect_oer_any_oid.exit:                         ; preds = %35, %37
  call void @llvm.lifetime.end.p0(i64 4, ptr nonnull %7)
  ret i32 %9
}